target datalayout = "e-m:e-p270:32:32-p271:32:32-p272:64:64-i64:64-i128:128-f80:128-n8:16:32:64-S128"
target triple = "x86_64-unknown-linux-gnu"

%struct.ShaktiUartState = type { %struct.SysBusDevice, %struct.MemoryRegion, i32, i32, i32, i32, i32, i32, i32, i32, i32, %struct.CharBackend }
%struct.SysBusDevice = type { %struct.DeviceState, i32, [32 x %struct.anon], i32, [32 x i32] }
%struct.DeviceState = type { %struct.Object, ptr, ptr, i8, i8, i64, ptr, i32, i8, ptr, %struct.NamedGPIOListHead, %struct.NamedClockListHead, %struct.BusStateHead, i32, i32, i32, %struct.ResettableState, ptr, %struct.MemReentrancyGuard }
%struct.Object = type { ptr, ptr, ptr, i32, ptr }
%struct.NamedGPIOListHead = type { ptr }
%struct.NamedClockListHead = type { ptr }
%struct.BusStateHead = type { ptr }
%struct.ResettableState = type { i32, i8, i8 }
%struct.MemReentrancyGuard = type { i8 }
%struct.anon = type { i64, ptr }
%struct.MemoryRegion = type { %struct.Object, i8, i8, i8, i8, i8, i8, i8, i8, i8, i8, ptr, ptr, ptr, ptr, ptr, ptr, i32, i128, i64, ptr, i64, i8, i8, i8, i8, i8, ptr, i64, i32, %union.anon, %union.anon.0, %union.anon.1, ptr, i32, ptr, ptr, i8 }
%union.anon = type { %struct.QTailQLink }
%struct.QTailQLink = type { ptr, ptr }
%union.anon.0 = type { %struct.QTailQLink }
%union.anon.1 = type { %struct.QTailQLink }
%struct.CharBackend = type { ptr, ptr, ptr, ptr, ptr, ptr, i32, i32 }

@.str.3 = private unnamed_addr constant [22 x i8] c"%s: Bad offset 0x%lx\0A\00", align 1
@__func__.shakti_uart_read = private unnamed_addr constant [17 x i8] c"shakti_uart_read\00", align 1
@qemu_loglevel = external global i32, align 4

; Function Attrs: nounwind sspstrong uwtable
define internal zeroext i1 @qemu_loglevel_mask(i32 noundef %mask) #0 {
entry:
  %mask.addr = alloca i32, align 4
  store i32 %mask, ptr %mask.addr, align 4
  %0 = load i32, ptr @qemu_loglevel, align 4
  %1 = load i32, ptr %mask.addr, align 4
  %and = and i32 %0, %1
  %cmp = icmp ne i32 %and, 0
  ret i1 %cmp
}

; Function Attrs: nounwind sspstrong uwtable
define internal i64 @shakti_uart_read(ptr noundef %opaque, i64 noundef %addr, i32 noundef %size) #0 {
entry:
  %retval = alloca i64, align 8
  %opaque.addr = alloca ptr, align 8
  %addr.addr = alloca i64, align 8
  %size.addr = alloca i32, align 4
  %s = alloca ptr, align 8
  store ptr %opaque, ptr %opaque.addr, align 8
  store i64 %addr, ptr %addr.addr, align 8
  store i32 %size, ptr %size.addr, align 4
  %0 = load ptr, ptr %opaque.addr, align 8
  store ptr %0, ptr %s, align 8
  %1 = load i64, ptr %addr.addr, align 8
  switch i64 %1, label %sw.default [
    i64 0, label %sw.bb
    i64 8, label %sw.bb1
    i64 12, label %sw.bb3
    i64 16, label %sw.bb6
    i64 20, label %sw.bb8
    i64 24, label %sw.bb10
    i64 28, label %sw.bb12
    i64 32, label %sw.bb14
  ]

sw.bb:                                            ; preds = %entry
  %2 = load ptr, ptr %s, align 8
  %uart_baud = getelementptr inbounds %struct.ShaktiUartState, ptr %2, i32 0, i32 2
  %3 = load i32, ptr %uart_baud, align 16
  %conv = zext i32 %3 to i64
  store i64 %conv, ptr %retval, align 8
  br label %return

sw.bb1:                                           ; preds = %entry
  %4 = load ptr, ptr %s, align 8
  %chr = getelementptr inbounds %struct.ShaktiUartState, ptr %4, i32 0, i32 11
  call void @qemu_chr_fe_accept_input(ptr noundef %chr)
  %5 = load ptr, ptr %s, align 8
  %uart_status = getelementptr inbounds %struct.ShaktiUartState, ptr %5, i32 0, i32 5
  %6 = load i32, ptr %uart_status, align 4
  %and = and i32 %6, -5
  store i32 %and, ptr %uart_status, align 4
  %7 = load ptr, ptr %s, align 8
  %uart_rx = getelementptr inbounds %struct.ShaktiUartState, ptr %7, i32 0, i32 4
  %8 = load i32, ptr %uart_rx, align 8
  %conv2 = zext i32 %8 to i64
  store i64 %conv2, ptr %retval, align 8
  br label %return

sw.bb3:                                           ; preds = %entry
  %9 = load ptr, ptr %s, align 8
  %uart_status4 = getelementptr inbounds %struct.ShaktiUartState, ptr %9, i32 0, i32 5
  %10 = load i32, ptr %uart_status4, align 4
  %conv5 = zext i32 %10 to i64
  store i64 %conv5, ptr %retval, align 8
  br label %return

sw.bb6:                                           ; preds = %entry
  %11 = load ptr, ptr %s, align 8
  %uart_delay = getelementptr inbounds %struct.ShaktiUartState, ptr %11, i32 0, i32 6
  %12 = load i32, ptr %uart_delay, align 16
  %conv7 = zext i32 %12 to i64
  store i64 %conv7, ptr %retval, align 8
  br label %return

sw.bb8:                                           ; preds = %entry
  %13 = load ptr, ptr %s, align 8
  %uart_control = getelementptr inbounds %struct.ShaktiUartState, ptr %13, i32 0, i32 7
  %14 = load i32, ptr %uart_control, align 4
  %conv9 = zext i32 %14 to i64
  store i64 %conv9, ptr %retval, align 8
  br label %return

sw.bb10:                                          ; preds = %entry
  %15 = load ptr, ptr %s, align 8
  %uart_interrupt = getelementptr inbounds %struct.ShaktiUartState, ptr %15, i32 0, i32 8
  %16 = load i32, ptr %uart_interrupt, align 8
  %conv11 = zext i32 %16 to i64
  store i64 %conv11, ptr %retval, align 8
  br label %return

sw.bb12:                                          ; preds = %entry
  %17 = load ptr, ptr %s, align 8
  %uart_iq_cycles = getelementptr inbounds %struct.ShaktiUartState, ptr %17, i32 0, i32 9
  %18 = load i32, ptr %uart_iq_cycles, align 4
  %conv13 = zext i32 %18 to i64
  store i64 %conv13, ptr %retval, align 8
  br label %return

sw.bb14:                                          ; preds = %entry
  %19 = load ptr, ptr %s, align 8
  %uart_rx_threshold = getelementptr inbounds %struct.ShaktiUartState, ptr %19, i32 0, i32 10
  %20 = load i32, ptr %uart_rx_threshold, align 16
  %conv15 = zext i32 %20 to i64
  store i64 %conv15, ptr %retval, align 8
  br label %return

sw.default:                                       ; preds = %entry
  br label %do.body

do.body:                                          ; preds = %sw.default
  %call = call zeroext i1 @qemu_loglevel_mask(i32 noundef 2048)
  %lnot = xor i1 %call, true
  %lnot16 = xor i1 %lnot, true
  %lnot.ext = zext i1 %lnot16 to i32
  %conv17 = sext i32 %lnot.ext to i64
  %tobool = icmp ne i64 %conv17, 0
  br i1 %tobool, label %if.then, label %if.end

if.then:                                          ; preds = %do.body
  %21 = load i64, ptr %addr.addr, align 8
  call void (ptr, ...) @qemu_log(ptr noundef @.str.3, ptr noundef @__func__.shakti_uart_read, i64 noundef %21)
  br label %if.end

if.end:                                           ; preds = %if.then, %do.body
  br label %do.end

do.end:                                           ; preds = %if.end
  br label %sw.epilog

sw.epilog:                                        ; preds = %do.end
  store i64 0, ptr %retval, align 8
  br label %return

return:                                           ; preds = %sw.epilog, %sw.bb14, %sw.bb12, %sw.bb10, %sw.bb8, %sw.bb6, %sw.bb3, %sw.bb1, %sw.bb
  %22 = load i64, ptr %retval, align 8
  ret i64 %22
}