; Function Attrs: nounwind sspstrong uwtable
define internal range(i64 0, 4294967296) i64 @shakti_uart_read(ptr noundef %opaque, i64 noundef %addr, i32 %size) #0 {
entry:
  %0 = tail call i64 @llvm.fshl.i64(i64 %addr, i64 %addr, i64 62)
  switch i64 %0, label %do.body [
    i64 0, label %sw.bb
    i64 2, label %sw.bb1
    i64 3, label %sw.bb3
    i64 4, label %sw.bb6
    i64 5, label %sw.bb8
    i64 6, label %sw.bb10
    i64 7, label %sw.bb12
    i64 8, label %sw.bb14
  ]

sw.bb:                                            ; preds = %entry
  %uart_baud = getelementptr inbounds nuw i8, ptr %opaque, i64 1088
  %1 = load i32, ptr %uart_baud, align 16
  br label %return

sw.bb1:                                           ; preds = %entry
  %chr = getelementptr inbounds nuw i8, ptr %opaque, i64 1128
  tail call void @qemu_chr_fe_accept_input(ptr noundef nonnull %chr) #6
  %uart_status = getelementptr inbounds nuw i8, ptr %opaque, i64 1100
  %2 = load i32, ptr %uart_status, align 4
  %and = and i32 %2, -5
  store i32 %and, ptr %uart_status, align 4
  %uart_rx = getelementptr inbounds nuw i8, ptr %opaque, i64 1096
  %3 = load i32, ptr %uart_rx, align 8
  br label %return

sw.bb3:                                           ; preds = %entry
  %uart_status4 = getelementptr inbounds nuw i8, ptr %opaque, i64 1100
  %4 = load i32, ptr %uart_status4, align 4
  br label %return

sw.bb6:                                           ; preds = %entry
  %uart_delay = getelementptr inbounds nuw i8, ptr %opaque, i64 1104
  %5 = load i32, ptr %uart_delay, align 16
  br label %return

sw.bb8:                                           ; preds = %entry
  %uart_control = getelementptr inbounds nuw i8, ptr %opaque, i64 1108
  %6 = load i32, ptr %uart_control, align 4
  br label %return

sw.bb10:                                          ; preds = %entry
  %uart_interrupt = getelementptr inbounds nuw i8, ptr %opaque, i64 1112
  %7 = load i32, ptr %uart_interrupt, align 8
  br label %return

sw.bb12:                                          ; preds = %entry
  %uart_iq_cycles = getelementptr inbounds nuw i8, ptr %opaque, i64 1116
  %8 = load i32, ptr %uart_iq_cycles, align 4
  br label %return

sw.bb14:                                          ; preds = %entry
  %uart_rx_threshold = getelementptr inbounds nuw i8, ptr %opaque, i64 1120
  %9 = load i32, ptr %uart_rx_threshold, align 16
  br label %return

do.body:                                          ; preds = %entry
  %10 = load i32, ptr @qemu_loglevel, align 4
  %and.i = and i32 %10, 2048
  %cmp.i.not = icmp eq i32 %and.i, 0
  br i1 %cmp.i.not, label %return, label %if.then

if.then:                                          ; preds = %do.body
  tail call void (ptr, ...) @qemu_log(ptr noundef nonnull @.str.3, ptr noundef nonnull @__func__.shakti_uart_read, i64 noundef %addr) #6
  br label %return

return:                                           ; preds = %do.body, %if.then, %sw.bb14, %sw.bb12, %sw.bb10, %sw.bb8, %sw.bb6, %sw.bb3, %sw.bb1, %sw.bb
  %retval.0.shrunk = phi i32 [ %9, %sw.bb14 ], [ %8, %sw.bb12 ], [ %7, %sw.bb10 ], [ %6, %sw.bb8 ], [ %5, %sw.bb6 ], [ %4, %sw.bb3 ], [ %3, %sw.bb1 ], [ %1, %sw.bb ], [ 0, %if.then ], [ 0, %do.body ]
  %retval.0 = zext i32 %retval.0.shrunk to i64
  ret i64 %retval.0
}